target datalayout = "e-m:e-p270:32:32-p271:32:32-p272:64:64-i64:64-i128:128-f80:128-n8:16:32:64-S128"
target triple = "x86_64-pc-linux-gnu"

; Function Attrs: nounwind uwtable
define internal void @Float32_To_Int24_Clip(ptr noundef %0, i32 noundef %1, ptr noundef %2, i32 noundef %3, i32 noundef %4, ptr noundef %5) #0 {
  %7 = alloca ptr, align 8
  %8 = alloca i32, align 4
  %9 = alloca ptr, align 8
  %10 = alloca i32, align 4
  %11 = alloca i32, align 4
  %12 = alloca ptr, align 8
  %13 = alloca ptr, align 8
  %14 = alloca ptr, align 8
  %15 = alloca i32, align 4
  %16 = alloca double, align 8
  store ptr %0, ptr %7, align 8, !tbaa !70
  store i32 %1, ptr %8, align 4, !tbaa !71
  store ptr %2, ptr %9, align 8, !tbaa !70
  store i32 %3, ptr %10, align 4, !tbaa !71
  store i32 %4, ptr %11, align 4, !tbaa !71
  store ptr %5, ptr %12, align 8, !tbaa !73
  call void @llvm.lifetime.start.p0(i64 8, ptr %13) #4
  %17 = load ptr, ptr %9, align 8, !tbaa !70
  store ptr %17, ptr %13, align 8, !tbaa !75
  call void @llvm.lifetime.start.p0(i64 8, ptr %14) #4
  %18 = load ptr, ptr %7, align 8, !tbaa !70
  store ptr %18, ptr %14, align 8, !tbaa !87
  call void @llvm.lifetime.start.p0(i64 4, ptr %15) #4
  br label %19

19:                                               ; preds = %39, %6
  %20 = load i32, ptr %11, align 4, !tbaa !71
  %21 = add i32 %20, -1
  store i32 %21, ptr %11, align 4, !tbaa !71
  %22 = icmp ne i32 %20, 0
  br i1 %22, label %23, label %67

23:                                               ; preds = %19
  call void @llvm.lifetime.start.p0(i64 8, ptr %16) #4
  %24 = load ptr, ptr %13, align 8, !tbaa !75
  %25 = load float, ptr %24, align 4, !tbaa !79
  %26 = fmul float %25, 0x41E0000000000000
  %27 = fpext float %26 to double
  store double %27, ptr %16, align 8, !tbaa !81
  %28 = load double, ptr %16, align 8, !tbaa !81
  %29 = fcmp olt double %28, 0xC1E0000000000000
  br i1 %29, label %30, label %31

30:                                               ; preds = %23
  br label %39

31:                                               ; preds = %23
  %32 = load double, ptr %16, align 8, !tbaa !81
  %33 = fcmp ogt double %32, 0x41DFFFFFFFC00000
  br i1 %33, label %34, label %35

34:                                               ; preds = %31
  br label %37

35:                                               ; preds = %31
  %36 = load double, ptr %16, align 8, !tbaa !81
  br label %37

37:                                               ; preds = %35, %34
  %38 = phi double [ 0x41DFFFFFFFC00000, %34 ], [ %36, %35 ]
  br label %39

39:                                               ; preds = %37, %30
  %40 = phi double [ 0xC1E0000000000000, %30 ], [ %38, %37 ]
  store double %40, ptr %16, align 8, !tbaa !81
  %41 = load double, ptr %16, align 8, !tbaa !81
  %42 = fptosi double %41 to i32
  store i32 %42, ptr %15, align 4, !tbaa !71
  %43 = load i32, ptr %15, align 4, !tbaa !71
  %44 = ashr i32 %43, 8
  %45 = trunc i32 %44 to i8
  %46 = load ptr, ptr %14, align 8, !tbaa !87
  %47 = getelementptr inbounds i8, ptr %46, i64 0
  store i8 %45, ptr %47, align 1, !tbaa !89
  %48 = load i32, ptr %15, align 4, !tbaa !71
  %49 = ashr i32 %48, 16
  %50 = trunc i32 %49 to i8
  %51 = load ptr, ptr %14, align 8, !tbaa !87
  %52 = getelementptr inbounds i8, ptr %51, i64 1
  store i8 %50, ptr %52, align 1, !tbaa !89
  %53 = load i32, ptr %15, align 4, !tbaa !71
  %54 = ashr i32 %53, 24
  %55 = trunc i32 %54 to i8
  %56 = load ptr, ptr %14, align 8, !tbaa !87
  %57 = getelementptr inbounds i8, ptr %56, i64 2
  store i8 %55, ptr %57, align 1, !tbaa !89
  %58 = load i32, ptr %10, align 4, !tbaa !71
  %59 = load ptr, ptr %13, align 8, !tbaa !75
  %60 = sext i32 %58 to i64
  %61 = getelementptr inbounds float, ptr %59, i64 %60
  store ptr %61, ptr %13, align 8, !tbaa !75
  %62 = load i32, ptr %8, align 4, !tbaa !71
  %63 = mul nsw i32 %62, 3
  %64 = load ptr, ptr %14, align 8, !tbaa !87
  %65 = sext i32 %63 to i64
  %66 = getelementptr inbounds i8, ptr %64, i64 %65
  store ptr %66, ptr %14, align 8, !tbaa !87
  call void @llvm.lifetime.end.p0(i64 8, ptr %16) #4
  br label %19, !llvm.loop !92

67:                                               ; preds = %19
  call void @llvm.lifetime.end.p0(i64 4, ptr %15) #4
  call void @llvm.lifetime.end.p0(i64 8, ptr %14) #4
  call void @llvm.lifetime.end.p0(i64 8, ptr %13) #4
  ret void
}