; Function Attrs: nofree norecurse nosync nounwind memory(argmem: readwrite) uwtable
define internal void @Float32_To_Int24_Clip(ptr noundef writeonly captures(none) %0, i32 noundef %1, ptr noundef readonly captures(none) %2, i32 noundef %3, i32 noundef %4, ptr readnone captures(none) %5) #2 {
  %.not20 = icmp eq i32 %4, 0
  br i1 %.not20, label %._crit_edge, label %.lr.ph

.lr.ph:                                           ; preds = %6
  %7 = sext i32 %3 to i64
  %8 = mul nsw i32 %1, 3
  %9 = sext i32 %8 to i64
  br label %10

10:                                               ; preds = %.lr.ph, %20
  %.in = phi i32 [ %4, %.lr.ph ], [ %11, %20 ]
  %.01722 = phi ptr [ %0, %.lr.ph ], [ %31, %20 ]
  %.01821 = phi ptr [ %2, %.lr.ph ], [ %30, %20 ]
  %11 = add i32 %.in, -1
  %12 = load float, ptr %.01821, align 4, !tbaa !68
  %13 = fmul float %12, 0x41E0000000000000
  %14 = fcmp olt float %13, 0xC1E0000000000000
  br i1 %14, label %20, label %15

15:                                               ; preds = %10
  %16 = fpext float %13 to double
  %17 = fcmp ogt double %16, 0x41DFFFFFFFC00000
  %18 = select i1 %17, double 0x41DFFFFFFFC00000, double %16
  %19 = fptosi double %18 to i32
  br label %20

20:                                               ; preds = %10, %15
  %21 = phi i32 [ %19, %15 ], [ -2147483648, %10 ]
  %22 = lshr i32 %21, 8
  %23 = trunc i32 %22 to i8
  store i8 %23, ptr %.01722, align 1, !tbaa !76
  %24 = lshr i32 %21, 16
  %25 = trunc i32 %24 to i8
  %26 = getelementptr inbounds nuw i8, ptr %.01722, i64 1
  store i8 %25, ptr %26, align 1, !tbaa !76
  %27 = lshr i32 %21, 24
  %28 = trunc nuw i32 %27 to i8
  %29 = getelementptr inbounds nuw i8, ptr %.01722, i64 2
  store i8 %28, ptr %29, align 1, !tbaa !76
  %30 = getelementptr inbounds float, ptr %.01821, i64 %7
  %31 = getelementptr inbounds i8, ptr %.01722, i64 %9
  %.not = icmp eq i32 %11, 0
  br i1 %.not, label %._crit_edge, label %10, !llvm.loop !79

._crit_edge:                                      ; preds = %20, %6
  ret void
}